target datalayout = "e-m:e-p270:32:32-p271:32:32-p272:64:64-i64:64-i128:128-f80:128-n8:16:32:64-S128"
target triple = "x86_64-unknown-linux-gnu"

%class.arith_util = type { ptr, ptr }
%class.bv_util = type { %class.bv_recognizers, ptr, ptr }
%class.bv_recognizers = type { i32 }
%class.ast = type { i32, i24, i32, i32 }
%class.obj_ref.42 = type { ptr, ptr }
%class.bv2real_rewriter = type { ptr, ptr, %class.bv_util, %class.arith_util }

; Function Attrs: mustprogress nounwind uwtable
define linkonce_odr hidden noundef i32 @_ZNK3ast13get_ref_countEv(ptr noundef nonnull align 4 dereferenceable(16) %this) #5 comdat align 2 {
entry:
  %this.addr = alloca ptr, align 8
  store ptr %this, ptr %this.addr, align 8
  %this1 = load ptr, ptr %this.addr, align 8
  %m_ref_count = getelementptr inbounds %class.ast, ptr %this1, i32 0, i32 2
  %0 = load i32, ptr %m_ref_count, align 4
  ret i32 %0
}

; Function Attrs: mustprogress nounwind uwtable
define linkonce_odr hidden void @_ZN3ast7dec_refEv(ptr noundef nonnull align 4 dereferenceable(16) %this) #5 comdat align 2 {
entry:
  %this.addr = alloca ptr, align 8
  store ptr %this, ptr %this.addr, align 8
  %this1 = load ptr, ptr %this.addr, align 8
  %m_ref_count = getelementptr inbounds %class.ast, ptr %this1, i32 0, i32 2
  %0 = load i32, ptr %m_ref_count, align 4
  %dec = add i32 %0, -1
  store i32 %dec, ptr %m_ref_count, align 4
  ret void
}

; Function Attrs: mustprogress uwtable
define linkonce_odr hidden void @_ZN11ast_manager7dec_refEP3ast(ptr noundef nonnull align 8 dereferenceable(976) %this, ptr noundef %n) #4 comdat align 2 {
entry:
  %this.addr = alloca ptr, align 8
  %n.addr = alloca ptr, align 8
  store ptr %this, ptr %this.addr, align 8
  store ptr %n, ptr %n.addr, align 8
  %this1 = load ptr, ptr %this.addr, align 8
  %0 = load ptr, ptr %n.addr, align 8
  %tobool = icmp ne ptr %0, null
  br i1 %tobool, label %if.then, label %if.end3

if.then:                                          ; preds = %entry
  %1 = load ptr, ptr %n.addr, align 8
  call void @_ZN3ast7dec_refEv(ptr noundef nonnull align 4 dereferenceable(16) %1)
  %2 = load ptr, ptr %n.addr, align 8
  %call = call noundef i32 @_ZNK3ast13get_ref_countEv(ptr noundef nonnull align 4 dereferenceable(16) %2)
  %cmp = icmp eq i32 %call, 0
  br i1 %cmp, label %if.then2, label %if.end

if.then2:                                         ; preds = %if.then
  %3 = load ptr, ptr %n.addr, align 8
  call void @_ZN11ast_manager11delete_nodeEP3ast(ptr noundef nonnull align 8 dereferenceable(976) %this1, ptr noundef %3)
  br label %if.end

if.end:                                           ; preds = %if.then2, %if.then
  br label %if.end3

if.end3:                                          ; preds = %if.end, %entry
  ret void
}

; Function Attrs: mustprogress nounwind uwtable
define linkonce_odr hidden void @_ZN3ast7inc_refEv(ptr noundef nonnull align 4 dereferenceable(16) %this) #5 comdat align 2 {
entry:
  %this.addr = alloca ptr, align 8
  store ptr %this, ptr %this.addr, align 8
  %this1 = load ptr, ptr %this.addr, align 8
  %m_ref_count = getelementptr inbounds %class.ast, ptr %this1, i32 0, i32 2
  %0 = load i32, ptr %m_ref_count, align 4
  %inc = add i32 %0, 1
  store i32 %inc, ptr %m_ref_count, align 4
  ret void
}

; Function Attrs: mustprogress uwtable
define linkonce_odr hidden void @_ZN7obj_refI4expr11ast_managerE7dec_refEv(ptr noundef nonnull align 8 dereferenceable(16) %this) #4 comdat align 2 {
entry:
  %this.addr = alloca ptr, align 8
  store ptr %this, ptr %this.addr, align 8
  %this1 = load ptr, ptr %this.addr, align 8
  %m_obj = getelementptr inbounds %class.obj_ref.42, ptr %this1, i32 0, i32 0
  %0 = load ptr, ptr %m_obj, align 8
  %tobool = icmp ne ptr %0, null
  br i1 %tobool, label %if.then, label %if.end

if.then:                                          ; preds = %entry
  %m_manager = getelementptr inbounds %class.obj_ref.42, ptr %this1, i32 0, i32 1
  %1 = load ptr, ptr %m_manager, align 8
  %m_obj2 = getelementptr inbounds %class.obj_ref.42, ptr %this1, i32 0, i32 0
  %2 = load ptr, ptr %m_obj2, align 8
  call void @_ZN11ast_manager7dec_refEP3ast(ptr noundef nonnull align 8 dereferenceable(976) %1, ptr noundef %2)
  br label %if.end

if.end:                                           ; preds = %if.then, %entry
  ret void
}

; Function Attrs: mustprogress uwtable
define linkonce_odr hidden void @_ZN11ast_manager7inc_refEP3ast(ptr noundef nonnull align 8 dereferenceable(976) %this, ptr noundef %n) #4 comdat align 2 {
entry:
  %this.addr = alloca ptr, align 8
  %n.addr = alloca ptr, align 8
  store ptr %this, ptr %this.addr, align 8
  store ptr %n, ptr %n.addr, align 8
  %0 = load ptr, ptr %n.addr, align 8
  %tobool = icmp ne ptr %0, null
  br i1 %tobool, label %if.then, label %if.end

if.then:                                          ; preds = %entry
  %1 = load ptr, ptr %n.addr, align 8
  call void @_ZN3ast7inc_refEv(ptr noundef nonnull align 4 dereferenceable(16) %1)
  br label %if.end

if.end:                                           ; preds = %if.then, %entry
  ret void
}

; Function Attrs: mustprogress uwtable
define linkonce_odr hidden noundef nonnull align 8 dereferenceable(16) ptr @_ZN7obj_refI4expr11ast_managerEaSEPS0_(ptr noundef nonnull align 8 dereferenceable(16) %this, ptr noundef %n) #4 comdat align 2 {
entry:
  %this.addr = alloca ptr, align 8
  %n.addr = alloca ptr, align 8
  store ptr %this, ptr %this.addr, align 8
  store ptr %n, ptr %n.addr, align 8
  %this1 = load ptr, ptr %this.addr, align 8
  %0 = load ptr, ptr %n.addr, align 8
  %tobool = icmp ne ptr %0, null
  br i1 %tobool, label %if.then, label %if.end

if.then:                                          ; preds = %entry
  %m_manager = getelementptr inbounds %class.obj_ref.42, ptr %this1, i32 0, i32 1
  %1 = load ptr, ptr %m_manager, align 8
  %2 = load ptr, ptr %n.addr, align 8
  call void @_ZN11ast_manager7inc_refEP3ast(ptr noundef nonnull align 8 dereferenceable(976) %1, ptr noundef %2)
  br label %if.end

if.end:                                           ; preds = %if.then, %entry
  call void @_ZN7obj_refI4expr11ast_managerE7dec_refEv(ptr noundef nonnull align 8 dereferenceable(16) %this1)
  %3 = load ptr, ptr %n.addr, align 8
  %m_obj = getelementptr inbounds %class.obj_ref.42, ptr %this1, i32 0, i32 0
  store ptr %3, ptr %m_obj, align 8
  ret ptr %this1
}

; Function Attrs: mustprogress uwtable
define linkonce_odr hidden noundef ptr @_ZN11ast_manager6mk_notEP4expr(ptr noundef nonnull align 8 dereferenceable(976) %this, ptr noundef %n) #4 comdat align 2 {
entry:
  %this.addr = alloca ptr, align 8
  %n.addr = alloca ptr, align 8
  store ptr %this, ptr %this.addr, align 8
  store ptr %n, ptr %n.addr, align 8
  %this1 = load ptr, ptr %this.addr, align 8
  %0 = load ptr, ptr %n.addr, align 8
  %call = call noundef ptr @_ZN11ast_manager6mk_appEiiP4expr(ptr noundef nonnull align 8 dereferenceable(976) %this1, i32 noundef 0, i32 noundef 8, ptr noundef %0)
  ret ptr %call
}

; Function Attrs: mustprogress uwtable
define linkonce_odr hidden noundef ptr @_ZNK10arith_util5mk_leEP4exprS1_(ptr noundef nonnull align 8 dereferenceable(16) %this, ptr noundef %arg1, ptr noundef %arg2) #4 comdat align 2 {
entry:
  %this.addr = alloca ptr, align 8
  %arg1.addr = alloca ptr, align 8
  %arg2.addr = alloca ptr, align 8
  store ptr %this, ptr %this.addr, align 8
  store ptr %arg1, ptr %arg1.addr, align 8
  store ptr %arg2, ptr %arg2.addr, align 8
  %this1 = load ptr, ptr %this.addr, align 8
  %m_manager = getelementptr inbounds %class.arith_util, ptr %this1, i32 0, i32 0
  %0 = load ptr, ptr %m_manager, align 8
  %1 = load ptr, ptr %arg1.addr, align 8
  %2 = load ptr, ptr %arg2.addr, align 8
  %call = call noundef ptr @_ZN11ast_manager6mk_appEiiP4exprS1_(ptr noundef nonnull align 8 dereferenceable(976) %0, i32 noundef 5, i32 noundef 2, ptr noundef %1, ptr noundef %2)
  ret ptr %call
}

; Function Attrs: mustprogress nounwind uwtable
define linkonce_odr hidden noundef nonnull align 8 dereferenceable(976) ptr @_ZNK16bv2real_rewriter1mEv(ptr noundef nonnull align 8 dereferenceable(56) %this) #5 comdat align 2 {
entry:
  %this.addr = alloca ptr, align 8
  store ptr %this, ptr %this.addr, align 8
  %this1 = load ptr, ptr %this.addr, align 8
  %m_manager = getelementptr inbounds %class.bv2real_rewriter, ptr %this1, i32 0, i32 0
  %0 = load ptr, ptr %m_manager, align 8
  ret ptr %0
}

; Function Attrs: mustprogress uwtable
define hidden noundef i32 @_ZN16bv2real_rewriter5mk_ltEP4exprS1_R7obj_refIS0_11ast_managerE(ptr noundef nonnull align 8 dereferenceable(56) %this, ptr noundef %arg1, ptr noundef %arg2, ptr noundef nonnull align 8 dereferenceable(16) %result) #4 align 2 {
entry:
  %this.addr = alloca ptr, align 8
  %arg1.addr = alloca ptr, align 8
  %arg2.addr = alloca ptr, align 8
  %result.addr = alloca ptr, align 8
  store ptr %this, ptr %this.addr, align 8
  store ptr %arg1, ptr %arg1.addr, align 8
  store ptr %arg2, ptr %arg2.addr, align 8
  store ptr %result, ptr %result.addr, align 8
  %this1 = load ptr, ptr %this.addr, align 8
  %call = call noundef nonnull align 8 dereferenceable(976) ptr @_ZNK16bv2real_rewriter1mEv(ptr noundef nonnull align 8 dereferenceable(56) %this1)
  %m_arith = getelementptr inbounds %class.bv2real_rewriter, ptr %this1, i32 0, i32 3
  %0 = load ptr, ptr %arg2.addr, align 8
  %1 = load ptr, ptr %arg1.addr, align 8
  %call2 = call noundef ptr @_ZNK10arith_util5mk_leEP4exprS1_(ptr noundef nonnull align 8 dereferenceable(16) %m_arith, ptr noundef %0, ptr noundef %1)
  %call3 = call noundef ptr @_ZN11ast_manager6mk_notEP4expr(ptr noundef nonnull align 8 dereferenceable(976) %call, ptr noundef %call2)
  %2 = load ptr, ptr %result.addr, align 8
  %call4 = call noundef nonnull align 8 dereferenceable(16) ptr @_ZN7obj_refI4expr11ast_managerEaSEPS0_(ptr noundef nonnull align 8 dereferenceable(16) %2, ptr noundef %call3)
  ret i32 1
}